; Function Attrs: nounwind uwtable
define internal fastcc void @agmakeattrs(ptr noundef %0, ptr noundef %1) unnamed_addr #0 {
  %3 = load ptr, ptr @AgDataRecName, align 8, !tbaa !15
  %4 = tail call ptr @agbindrec(ptr noundef %1, ptr noundef %3, i32 noundef 32, i32 noundef 0) #12
  %5 = load i32, ptr %1, align 8
  %6 = tail call ptr @aggetrec(ptr noundef %0, ptr noundef nonnull @DataDictName, i32 noundef 0) #12
  %.not.i32 = icmp eq ptr %6, null
  br i1 %.not.i32, label %agdictof.exit, label %switch.lookup

switch.lookup:                                    ; preds = %2
  %7 = and i32 %5, 3
  %8 = zext nneg i32 %7 to i64
  %switch.gep = getelementptr inbounds nuw [4 x i64], ptr @switch.table.agcopyattr, i64 0, i64 %8
  %switch.load = load i64, ptr %switch.gep, align 8
  %9 = getelementptr inbounds nuw i8, ptr %6, i64 %switch.load
  %10 = load ptr, ptr %9, align 8, !tbaa !34
  br label %agdictof.exit

agdictof.exit:                                    ; preds = %switch.lookup, %2
  %.0.i = phi ptr [ null, %2 ], [ %10, %switch.lookup ]
  %11 = getelementptr inbounds nuw i8, ptr %4, i64 16
  %12 = load ptr, ptr %11, align 8, !tbaa !16
  %13 = icmp eq ptr %12, null
  br i1 %13, label %14, label %.loopexit

14:                                               ; preds = %agdictof.exit
  %15 = tail call ptr @agroot(ptr noundef %0) #12
  %16 = load i32, ptr %1, align 8
  %17 = tail call ptr @aggetrec(ptr noundef %15, ptr noundef nonnull @DataDictName, i32 noundef 0) #12
  %.not.i34 = icmp eq ptr %17, null
  br i1 %.not.i34, label %agdictof.exit29, label %switch.lookup1

switch.lookup1:                                   ; preds = %14
  %18 = and i32 %16, 3
  %19 = zext nneg i32 %18 to i64
  %switch.gep2 = getelementptr inbounds nuw [4 x i64], ptr @switch.table.agcopyattr, i64 0, i64 %19
  %switch.load3 = load i64, ptr %switch.gep2, align 8
  %20 = getelementptr inbounds nuw i8, ptr %17, i64 %switch.load3
  %21 = load ptr, ptr %20, align 8, !tbaa !34
  br label %agdictof.exit29

agdictof.exit29:                                  ; preds = %switch.lookup1, %14
  %.0.i28 = phi ptr [ null, %14 ], [ %21, %switch.lookup1 ]
  store ptr %.0.i28, ptr %11, align 8, !tbaa !16
  %22 = tail call ptr @agraphof(ptr noundef nonnull %1) #12
  %23 = tail call ptr @agroot(ptr noundef %22) #12
  %24 = load i32, ptr %1, align 8
  %25 = tail call ptr @aggetrec(ptr noundef %23, ptr noundef nonnull @DataDictName, i32 noundef 0) #12
  %.not.i.i = icmp eq ptr %25, null
  br i1 %.not.i.i, label %topdictsize.exit, label %switch.lookup4

switch.lookup4:                                   ; preds = %agdictof.exit29
  %26 = and i32 %24, 3
  %27 = zext nneg i32 %26 to i64
  %switch.gep5 = getelementptr inbounds nuw [4 x i64], ptr @switch.table.agcopyattr, i64 0, i64 %27
  %switch.load6 = load i64, ptr %switch.gep5, align 8
  %28 = getelementptr inbounds nuw i8, ptr %25, i64 %switch.load6
  %.0.i37 = load ptr, ptr %28, align 8, !tbaa !34
  %.not.i30 = icmp eq ptr %.0.i37, null
  br i1 %.not.i30, label %topdictsize.exit, label %29

29:                                               ; preds = %switch.lookup4
  %30 = tail call i32 @dtsize(ptr noundef nonnull %.0.i37) #12
  br label %topdictsize.exit

topdictsize.exit:                                 ; preds = %agdictof.exit29, %switch.lookup4, %29
  %31 = phi i32 [ %30, %29 ], [ 0, %switch.lookup4 ], [ 0, %agdictof.exit29 ]
  %spec.store.select = tail call i32 @llvm.smax.i32(i32 %31, i32 4)
  %32 = zext nneg i32 %spec.store.select to i64
  %33 = tail call noalias ptr @calloc(i64 noundef range(i64 -2147483648, 2147483648) %32, i64 noundef 8) #14
  %34 = icmp eq ptr %33, null
  br i1 %34, label %35, label %gv_calloc.exit

35:                                               ; preds = %topdictsize.exit
  %36 = load ptr, ptr @stderr, align 8, !tbaa !37
  %37 = shl nuw nsw i64 %32, 3
  %38 = tail call i32 (ptr, ptr, ...) @fprintf(ptr noundef %36, ptr noundef nonnull @.str.6, i64 noundef %37) #15
  tail call fastcc void @graphviz_exit() #16
  unreachable

gv_calloc.exit:                                   ; preds = %topdictsize.exit
  %39 = getelementptr inbounds nuw i8, ptr %4, i64 24
  store ptr %33, ptr %39, align 8, !tbaa !35
  %40 = load ptr, ptr %.0.i, align 8, !tbaa !25
  %41 = tail call ptr %40(ptr noundef nonnull %.0.i, ptr noundef null, i32 noundef 128) #12
  %.not44 = icmp eq ptr %41, null
  br i1 %.not44, label %.loopexit, label %.lr.ph

.lr.ph:                                           ; preds = %gv_calloc.exit, %52
  %.045 = phi ptr [ %58, %52 ], [ %41, %gv_calloc.exit ]
  %42 = getelementptr inbounds nuw i8, ptr %.045, i64 24
  %43 = load ptr, ptr %42, align 8, !tbaa !14
  %44 = tail call i32 @aghtmlstr(ptr noundef %43) #12
  %.not26 = icmp eq i32 %44, 0
  %45 = tail call ptr @agraphof(ptr noundef nonnull %1) #12
  %46 = load ptr, ptr %42, align 8, !tbaa !14
  %47 = getelementptr inbounds nuw i8, ptr %.045, i64 32
  br i1 %.not26, label %50, label %48

48:                                               ; preds = %.lr.ph
  %49 = tail call ptr @agstrdup_html(ptr noundef %45, ptr noundef %46) #12
  br label %52

50:                                               ; preds = %.lr.ph
  %51 = tail call ptr @agstrdup(ptr noundef %45, ptr noundef %46) #12
  br label %52

52:                                               ; preds = %48, %50
  %.sink49 = phi ptr [ %49, %48 ], [ %51, %50 ]
  %53 = load ptr, ptr %39, align 8, !tbaa !35
  %54 = load i32, ptr %47, align 8, !tbaa !36
  %55 = sext i32 %54 to i64
  %56 = getelementptr inbounds ptr, ptr %53, i64 %55
  store ptr %.sink49, ptr %56, align 8, !tbaa !15
  %57 = load ptr, ptr %.0.i, align 8, !tbaa !25
  %58 = tail call ptr %57(ptr noundef nonnull %.0.i, ptr noundef nonnull %.045, i32 noundef 8) #12
  %.not = icmp eq ptr %58, null
  br i1 %.not, label %.loopexit, label %.lr.ph, !llvm.loop !45

.loopexit:                                        ; preds = %52, %gv_calloc.exit, %agdictof.exit
  ret void
}